target datalayout = "e-m:e-p270:32:32-p271:32:32-p272:64:64-i64:64-i128:128-f80:128-n8:16:32:64-S128"
target triple = "x86_64-pc-linux-gnu"

%"class.opencv_test::DNNTestNetwork" = type { %"class.perf::TestBaseWithParam", i32, i32, %"class.cv::dnn::dnn4_v20241223::Net" }
%"class.perf::TestBaseWithParam" = type { %"class.perf::TestBase", %"class.testing::WithParamInterface" }
%"class.perf::TestBase" = type { %"class.testing::Test", %"class.std::vector", %"class.std::vector", i32, %"class.std::vector.0", i64, i64, i64, i32, i32, i32, i32, i32, [4 x i8], %"struct.perf::performance_metrics", i8, %"class.perf::TestBase::_declareHelper" }
%"class.testing::Test" = type { ptr, %"class.testing::internal::scoped_ptr" }
%"class.testing::internal::scoped_ptr" = type { ptr }
%"class.std::vector" = type { %"struct.std::_Vector_base" }
%"struct.std::_Vector_base" = type { %"struct.std::_Vector_base<std::pair<int, cv::Size_<int>>, std::allocator<std::pair<int, cv::Size_<int>>>>::_Vector_impl" }
%"struct.std::_Vector_base<std::pair<int, cv::Size_<int>>, std::allocator<std::pair<int, cv::Size_<int>>>>::_Vector_impl" = type { %"struct.std::_Vector_base<std::pair<int, cv::Size_<int>>, std::allocator<std::pair<int, cv::Size_<int>>>>::_Vector_impl_data" }
%"struct.std::_Vector_base<std::pair<int, cv::Size_<int>>, std::allocator<std::pair<int, cv::Size_<int>>>>::_Vector_impl_data" = type { ptr, ptr, ptr }
%"class.std::vector.0" = type { %"struct.std::_Vector_base.1" }
%"struct.std::_Vector_base.1" = type { %"struct.std::_Vector_base<long, std::allocator<long>>::_Vector_impl" }
%"struct.std::_Vector_base<long, std::allocator<long>>::_Vector_impl" = type { %"struct.std::_Vector_base<long, std::allocator<long>>::_Vector_impl_data" }
%"struct.std::_Vector_base<long, std::allocator<long>>::_Vector_impl_data" = type { ptr, ptr, ptr }
%"struct.perf::performance_metrics" = type <{ i64, i64, i32, i32, double, double, double, double, double, double, double, i32, [4 x i8] }>
%"class.perf::TestBase::_declareHelper" = type { ptr }
%"class.testing::WithParamInterface" = type { ptr }
%"class.cv::dnn::dnn4_v20241223::Net" = type { %"struct.cv::Ptr" }
%"struct.cv::Ptr" = type { %"class.std::shared_ptr" }
%"class.std::shared_ptr" = type { %"class.std::__shared_ptr" }
%"class.std::__shared_ptr" = type { ptr, %"class.std::__shared_count" }
%"class.std::__shared_count" = type { ptr }
%"class.opencv_test::DNNTestNetwork_EfficientNet_Test" = type <{ %"class.opencv_test::DNNTestNetwork", i8, [7 x i8] }>
%"class.std::tuple.42" = type { %"struct.std::_Tuple_impl.43" }
%"struct.std::_Tuple_impl.43" = type { %"struct.std::_Tuple_impl.44", %"struct.std::_Head_base.46" }
%"struct.std::_Tuple_impl.44" = type { %"struct.std::_Head_base.45" }
%"struct.std::_Head_base.45" = type { i32 }
%"struct.std::_Head_base.46" = type { i32 }
%"class.testing::internal::TestFactoryBase" = type { ptr }
%"class.testing::(anonymous namespace)::ParameterizedTestFactory.96" = type { %"class.testing::internal::TestFactoryBase", %"class.std::tuple.42" }

@_ZN7testing8internal12g_parameter_E = external global ptr, align 8

; Function Attrs: mustprogress nounwind uwtable
define linkonce_odr hidden noundef nonnull align 4 dereferenceable(4) ptr @_ZNSt10_Head_baseILm1EN2cv3dnn14dnn4_v202412236TargetELb0EE7_M_headERKS4_(ptr noundef nonnull align 4 dereferenceable(4) %0) #9 comdat align 2 {
  %2 = alloca ptr, align 8
  store ptr %0, ptr %2, align 8, !tbaa !373
  %3 = load ptr, ptr %2, align 8, !tbaa !373
  %4 = getelementptr inbounds nuw %"struct.std::_Head_base.45", ptr %3, i32 0, i32 0
  ret ptr %4
}

; Function Attrs: mustprogress nounwind uwtable
define linkonce_odr hidden noundef nonnull align 4 dereferenceable(4) ptr @_ZNSt10_Head_baseILm0EN2cv3dnn14dnn4_v202412237BackendELb0EE7_M_headERKS4_(ptr noundef nonnull align 4 dereferenceable(4) %0) #9 comdat align 2 {
  %2 = alloca ptr, align 8
  store ptr %0, ptr %2, align 8, !tbaa !369
  %3 = load ptr, ptr %2, align 8, !tbaa !369
  %4 = getelementptr inbounds nuw %"struct.std::_Head_base.46", ptr %3, i32 0, i32 0
  ret ptr %4
}

; Function Attrs: mustprogress nounwind uwtable
define linkonce_odr hidden noundef nonnull align 4 dereferenceable(4) ptr @_ZNSt11_Tuple_implILm1EJN2cv3dnn14dnn4_v202412236TargetEEE7_M_headERKS4_(ptr noundef nonnull align 4 dereferenceable(4) %0) #9 comdat align 2 {
  %2 = alloca ptr, align 8
  store ptr %0, ptr %2, align 8, !tbaa !371
  %3 = load ptr, ptr %2, align 8, !tbaa !371
  %4 = call noundef nonnull align 4 dereferenceable(4) ptr @_ZNSt10_Head_baseILm1EN2cv3dnn14dnn4_v202412236TargetELb0EE7_M_headERKS4_(ptr noundef nonnull align 4 dereferenceable(4) %3) #3
  ret ptr %4
}

; Function Attrs: mustprogress nounwind uwtable
define linkonce_odr hidden noundef nonnull align 4 dereferenceable(4) ptr @_ZNSt11_Tuple_implILm0EJN2cv3dnn14dnn4_v202412237BackendENS2_6TargetEEE7_M_headERKS5_(ptr noundef nonnull align 4 dereferenceable(8) %0) #9 comdat align 2 {
  %2 = alloca ptr, align 8
  store ptr %0, ptr %2, align 8, !tbaa !367
  %3 = load ptr, ptr %2, align 8, !tbaa !367
  %4 = getelementptr inbounds i8, ptr %3, i64 4
  %5 = call noundef nonnull align 4 dereferenceable(4) ptr @_ZNSt10_Head_baseILm0EN2cv3dnn14dnn4_v202412237BackendELb0EE7_M_headERKS4_(ptr noundef nonnull align 4 dereferenceable(4) %4) #3
  ret ptr %5
}

; Function Attrs: mustprogress nounwind uwtable
define linkonce_odr hidden noundef nonnull align 4 dereferenceable(4) ptr @_ZSt12__get_helperILm1EN2cv3dnn14dnn4_v202412236TargetEJEERKT0_RKSt11_Tuple_implIXT_EJS4_DpT1_EE(ptr noundef nonnull align 4 dereferenceable(4) %0) #9 comdat {
  %2 = alloca ptr, align 8
  store ptr %0, ptr %2, align 8, !tbaa !371
  %3 = load ptr, ptr %2, align 8, !tbaa !371
  %4 = call noundef nonnull align 4 dereferenceable(4) ptr @_ZNSt11_Tuple_implILm1EJN2cv3dnn14dnn4_v202412236TargetEEE7_M_headERKS4_(ptr noundef nonnull align 4 dereferenceable(4) %3) #3
  ret ptr %4
}

; Function Attrs: mustprogress nounwind uwtable
define linkonce_odr hidden noundef nonnull align 4 dereferenceable(4) ptr @_ZSt12__get_helperILm0EN2cv3dnn14dnn4_v202412237BackendEJNS2_6TargetEEERKT0_RKSt11_Tuple_implIXT_EJS5_DpT1_EE(ptr noundef nonnull align 4 dereferenceable(8) %0) #9 comdat {
  %2 = alloca ptr, align 8
  store ptr %0, ptr %2, align 8, !tbaa !367
  %3 = load ptr, ptr %2, align 8, !tbaa !367
  %4 = call noundef nonnull align 4 dereferenceable(4) ptr @_ZNSt11_Tuple_implILm0EJN2cv3dnn14dnn4_v202412237BackendENS2_6TargetEEE7_M_headERKS5_(ptr noundef nonnull align 4 dereferenceable(8) %3) #3
  ret ptr %4
}

; Function Attrs: inlinehint mustprogress nounwind uwtable
define linkonce_odr hidden void @_ZN7testing18WithParamInterfaceISt5tupleIJN2cv3dnn14dnn4_v202412237BackendENS4_6TargetEEEEC2Ev(ptr noundef nonnull align 8 dereferenceable(8) %0) unnamed_addr #4 comdat align 2 {
  %2 = alloca ptr, align 8
  store ptr %0, ptr %2, align 8, !tbaa !365
  %3 = load ptr, ptr %2, align 8
  store ptr getelementptr inbounds inrange(-16, 16) ({ [4 x ptr] }, ptr @_ZTVN7testing18WithParamInterfaceISt5tupleIJN2cv3dnn14dnn4_v202412237BackendENS4_6TargetEEEEE, i32 0, i32 0, i32 2), ptr %3, align 8, !tbaa !20
  ret void
}

; Function Attrs: mustprogress nounwind uwtable
define linkonce_odr hidden noundef nonnull align 4 dereferenceable(4) ptr @_ZSt3getILm1EJN2cv3dnn14dnn4_v202412237BackendENS2_6TargetEEERKNSt13tuple_elementIXT_ESt5tupleIJDpT0_EEE4typeERKS9_(ptr noundef nonnull align 4 dereferenceable(8) %0) #9 comdat {
  %2 = alloca ptr, align 8
  store ptr %0, ptr %2, align 8, !tbaa !355
  %3 = load ptr, ptr %2, align 8, !tbaa !355
  %4 = call noundef nonnull align 4 dereferenceable(4) ptr @_ZSt12__get_helperILm1EN2cv3dnn14dnn4_v202412236TargetEJEERKT0_RKSt11_Tuple_implIXT_EJS4_DpT1_EE(ptr noundef nonnull align 4 dereferenceable(4) %3) #3
  ret ptr %4
}

; Function Attrs: mustprogress nounwind uwtable
define linkonce_odr hidden noundef nonnull align 4 dereferenceable(4) ptr @_ZSt3getILm0EJN2cv3dnn14dnn4_v202412237BackendENS2_6TargetEEERKNSt13tuple_elementIXT_ESt5tupleIJDpT0_EEE4typeERKS9_(ptr noundef nonnull align 4 dereferenceable(8) %0) #9 comdat {
  %2 = alloca ptr, align 8
  store ptr %0, ptr %2, align 8, !tbaa !355
  %3 = load ptr, ptr %2, align 8, !tbaa !355
  %4 = call noundef nonnull align 4 dereferenceable(4) ptr @_ZSt12__get_helperILm0EN2cv3dnn14dnn4_v202412237BackendEJNS2_6TargetEEERKT0_RKSt11_Tuple_implIXT_EJS5_DpT1_EE(ptr noundef nonnull align 4 dereferenceable(8) %3) #3
  ret ptr %4
}

; Function Attrs: inlinehint mustprogress uwtable
define linkonce_odr hidden void @_ZN4perf17TestBaseWithParamISt5tupleIJN2cv3dnn14dnn4_v202412237BackendENS4_6TargetEEEEC2Ev(ptr noundef nonnull align 8 dereferenceable(256) %0) unnamed_addr #10 comdat align 2 {
  %2 = alloca ptr, align 8
  store ptr %0, ptr %2, align 8, !tbaa !363
  %3 = load ptr, ptr %2, align 8
  call void @_ZN4perf8TestBaseC2Ev(ptr noundef nonnull align 8 dereferenceable(248) %3)
  %4 = getelementptr inbounds i8, ptr %3, i64 248
  call void @_ZN7testing18WithParamInterfaceISt5tupleIJN2cv3dnn14dnn4_v202412237BackendENS4_6TargetEEEEC2Ev(ptr noundef nonnull align 8 dereferenceable(8) %4) #3
  store ptr getelementptr inbounds inrange(-16, 56) ({ [9 x ptr], [4 x ptr] }, ptr @_ZTVN4perf17TestBaseWithParamISt5tupleIJN2cv3dnn14dnn4_v202412237BackendENS4_6TargetEEEEE, i32 0, i32 0, i32 2), ptr %3, align 8, !tbaa !20
  %5 = getelementptr inbounds i8, ptr %3, i64 248
  store ptr getelementptr inbounds inrange(-16, 16) ({ [9 x ptr], [4 x ptr] }, ptr @_ZTVN4perf17TestBaseWithParamISt5tupleIJN2cv3dnn14dnn4_v202412237BackendENS4_6TargetEEEEE, i32 0, i32 1, i32 2), ptr %5, align 8, !tbaa !20
  ret void
}

; Function Attrs: mustprogress uwtable
define linkonce_odr hidden void @_ZN11opencv_test14DNNTestNetworkC2Ev(ptr noundef nonnull align 8 dereferenceable(280) %0) unnamed_addr #6 comdat align 2 personality ptr @__gxx_personality_v0 {
  %2 = alloca ptr, align 8
  %3 = alloca ptr, align 8
  %4 = alloca i32, align 4
  store ptr %0, ptr %2, align 8, !tbaa !61
  %5 = load ptr, ptr %2, align 8
  call void @_ZN4perf17TestBaseWithParamISt5tupleIJN2cv3dnn14dnn4_v202412237BackendENS4_6TargetEEEEC2Ev(ptr noundef nonnull align 8 dereferenceable(256) %5)
  store ptr getelementptr inbounds inrange(-16, 56) ({ [9 x ptr], [4 x ptr] }, ptr @_ZTVN11opencv_test14DNNTestNetworkE, i32 0, i32 0, i32 2), ptr %5, align 8, !tbaa !20
  %6 = getelementptr inbounds i8, ptr %5, i64 248
  store ptr getelementptr inbounds inrange(-16, 16) ({ [9 x ptr], [4 x ptr] }, ptr @_ZTVN11opencv_test14DNNTestNetworkE, i32 0, i32 1, i32 2), ptr %6, align 8, !tbaa !20
  %7 = getelementptr inbounds nuw %"class.opencv_test::DNNTestNetwork", ptr %5, i32 0, i32 3
  invoke void @_ZN2cv3dnn14dnn4_v202412233NetC1Ev(ptr noundef nonnull align 8 dereferenceable(16) %7)
          to label %8 unwind label %21

8:                                                ; preds = %1
  %9 = getelementptr inbounds i8, ptr %5, i64 248
  %10 = invoke noundef nonnull align 4 dereferenceable(8) ptr @_ZNK7testing18WithParamInterfaceISt5tupleIJN2cv3dnn14dnn4_v202412237BackendENS4_6TargetEEEE8GetParamEv(ptr noundef nonnull align 8 dereferenceable(8) %9)
          to label %11 unwind label %25

11:                                               ; preds = %8
  %12 = call noundef nonnull align 4 dereferenceable(4) ptr @_ZSt3getILm0EJN2cv3dnn14dnn4_v202412237BackendENS2_6TargetEEERKNSt13tuple_elementIXT_ESt5tupleIJDpT0_EEE4typeERKS9_(ptr noundef nonnull align 4 dereferenceable(8) %10) #3
  %13 = load i32, ptr %12, align 4, !tbaa !361
  %14 = getelementptr inbounds nuw %"class.opencv_test::DNNTestNetwork", ptr %5, i32 0, i32 1
  store i32 %13, ptr %14, align 8, !tbaa !89
  %15 = getelementptr inbounds i8, ptr %5, i64 248
  %16 = invoke noundef nonnull align 4 dereferenceable(8) ptr @_ZNK7testing18WithParamInterfaceISt5tupleIJN2cv3dnn14dnn4_v202412237BackendENS4_6TargetEEEE8GetParamEv(ptr noundef nonnull align 8 dereferenceable(8) %15)
          to label %17 unwind label %25

17:                                               ; preds = %11
  %18 = call noundef nonnull align 4 dereferenceable(4) ptr @_ZSt3getILm1EJN2cv3dnn14dnn4_v202412237BackendENS2_6TargetEEERKNSt13tuple_elementIXT_ESt5tupleIJDpT0_EEE4typeERKS9_(ptr noundef nonnull align 4 dereferenceable(8) %16) #3
  %19 = load i32, ptr %18, align 4, !tbaa !362
  %20 = getelementptr inbounds nuw %"class.opencv_test::DNNTestNetwork", ptr %5, i32 0, i32 2
  store i32 %19, ptr %20, align 4, !tbaa !103
  ret void

21:                                               ; preds = %1
  %22 = landingpad { ptr, i32 }
          cleanup
  %23 = extractvalue { ptr, i32 } %22, 0
  store ptr %23, ptr %3, align 8
  %24 = extractvalue { ptr, i32 } %22, 1
  store i32 %24, ptr %4, align 4
  br label %29

25:                                               ; preds = %11, %8
  %26 = landingpad { ptr, i32 }
          cleanup
  %27 = extractvalue { ptr, i32 } %26, 0
  store ptr %27, ptr %3, align 8
  %28 = extractvalue { ptr, i32 } %26, 1
  store i32 %28, ptr %4, align 4
  call void @_ZN2cv3dnn14dnn4_v202412233NetD1Ev(ptr noundef nonnull align 8 dereferenceable(16) %7) #3
  br label %29

29:                                               ; preds = %25, %21
  call void @_ZN4perf17TestBaseWithParamISt5tupleIJN2cv3dnn14dnn4_v202412237BackendENS4_6TargetEEEED2Ev(ptr noundef nonnull align 8 dereferenceable(256) %5) #3
  br label %30

30:                                               ; preds = %29
  %31 = load ptr, ptr %3, align 8
  %32 = load i32, ptr %4, align 4
  %33 = insertvalue { ptr, i32 } poison, ptr %31, 0
  %34 = insertvalue { ptr, i32 } %33, i32 %32, 1
  resume { ptr, i32 } %34
}

; Function Attrs: mustprogress nounwind uwtable
define linkonce_odr hidden noundef nonnull align 8 dereferenceable(8) ptr @_ZN7testing18WithParamInterfaceISt5tupleIJN2cv3dnn14dnn4_v202412237BackendENS4_6TargetEEEE19GetParameterPtrRef_Ev() #9 comdat align 2 {
  ret ptr @_ZN7testing8internal12g_parameter_E
}

; Function Attrs: mustprogress uwtable
define linkonce_odr hidden void @_ZN11opencv_test32DNNTestNetwork_EfficientNet_TestC2Ev(ptr noundef nonnull align 8 dereferenceable(281) %0) unnamed_addr #6 comdat align 2 {
  %2 = alloca ptr, align 8
  store ptr %0, ptr %2, align 8, !tbaa !190
  %3 = load ptr, ptr %2, align 8
  call void @_ZN11opencv_test14DNNTestNetworkC2Ev(ptr noundef nonnull align 8 dereferenceable(280) %3)
  store ptr getelementptr inbounds inrange(-16, 56) ({ [9 x ptr], [4 x ptr] }, ptr @_ZTVN11opencv_test32DNNTestNetwork_EfficientNet_TestE, i32 0, i32 0, i32 2), ptr %3, align 8, !tbaa !20
  %4 = getelementptr inbounds i8, ptr %3, i64 248
  store ptr getelementptr inbounds inrange(-16, 16) ({ [9 x ptr], [4 x ptr] }, ptr @_ZTVN11opencv_test32DNNTestNetwork_EfficientNet_TestE, i32 0, i32 1, i32 2), ptr %4, align 8, !tbaa !20
  %5 = getelementptr inbounds nuw %"class.opencv_test::DNNTestNetwork_EfficientNet_Test", ptr %3, i32 0, i32 1
  store i8 0, ptr %5, align 8, !tbaa !192
  ret void
}

; Function Attrs: mustprogress uwtable
define linkonce_odr hidden void @_ZN7testing18WithParamInterfaceISt5tupleIJN2cv3dnn14dnn4_v202412237BackendENS4_6TargetEEEE8SetParamEPKS7_(ptr noundef %0) #6 comdat align 2 {
  %2 = alloca ptr, align 8
  store ptr %0, ptr %2, align 8, !tbaa !355
  %3 = load ptr, ptr %2, align 8, !tbaa !355
  %4 = call noundef nonnull align 8 dereferenceable(8) ptr @_ZN7testing18WithParamInterfaceISt5tupleIJN2cv3dnn14dnn4_v202412237BackendENS4_6TargetEEEE19GetParameterPtrRef_Ev()
  store ptr %3, ptr %4, align 8, !tbaa !355
  ret void
}

; Function Attrs: mustprogress uwtable
define internal noundef ptr @_ZN7testing12_GLOBAL__N_124ParameterizedTestFactoryIN11opencv_test32DNNTestNetwork_EfficientNet_TestEE10CreateTestEv(ptr noundef nonnull align 8 dereferenceable(16) %0) unnamed_addr #6 align 2 personality ptr @__gxx_personality_v0 {
  %2 = alloca ptr, align 8
  %3 = alloca ptr, align 8
  %4 = alloca i32, align 4
  store ptr %0, ptr %2, align 8, !tbaa !520
  %5 = load ptr, ptr %2, align 8
  %6 = getelementptr inbounds nuw %"class.testing::(anonymous namespace)::ParameterizedTestFactory.96", ptr %5, i32 0, i32 1
  call void @_ZN7testing18WithParamInterfaceISt5tupleIJN2cv3dnn14dnn4_v202412237BackendENS4_6TargetEEEE8SetParamEPKS7_(ptr noundef %6)
  %7 = call noalias noundef nonnull ptr @_Znwm(i64 noundef 288) #26
  invoke void @_ZN11opencv_test32DNNTestNetwork_EfficientNet_TestC2Ev(ptr noundef nonnull align 8 dereferenceable(281) %7)
          to label %8 unwind label %9

8:                                                ; preds = %1
  ret ptr %7

9:                                                ; preds = %1
  %10 = landingpad { ptr, i32 }
          cleanup
  %11 = extractvalue { ptr, i32 } %10, 0
  store ptr %11, ptr %3, align 8
  %12 = extractvalue { ptr, i32 } %10, 1
  store i32 %12, ptr %4, align 4
  call void @_ZdlPv(ptr noundef %7) #27
  br label %13

13:                                               ; preds = %9
  %14 = load ptr, ptr %3, align 8
  %15 = load i32, ptr %4, align 4
  %16 = insertvalue { ptr, i32 } poison, ptr %14, 0
  %17 = insertvalue { ptr, i32 } %16, i32 %15, 1
  resume { ptr, i32 } %17
}